; Function Attrs: mustprogress nofree norecurse nosync nounwind willreturn memory(argmem: readwrite) uwtable
define noundef nonnull align 4 dereferenceable(36) ptr @_ZN32pxrInternal_v0_24__pxrReserved__10GfMatrix3fmIERKS0_(ptr noundef nonnull returned align 4 dereferenceable(36) %0, ptr nocapture noundef nonnull readonly align 4 dereferenceable(36) %1) local_unnamed_addr #2 align 2 {
  %3 = load float, ptr %1, align 4
  %4 = load float, ptr %0, align 4
  %5 = fsub float %4, %3
  store float %5, ptr %0, align 4
  %6 = getelementptr inbounds i8, ptr %1, i64 4
  %7 = load float, ptr %6, align 4
  %8 = getelementptr inbounds i8, ptr %0, i64 4
  %9 = load float, ptr %8, align 4
  %10 = fsub float %9, %7
  store float %10, ptr %8, align 4
  %11 = getelementptr inbounds i8, ptr %1, i64 8
  %12 = load float, ptr %11, align 4
  %13 = getelementptr inbounds i8, ptr %0, i64 8
  %14 = load float, ptr %13, align 4
  %15 = fsub float %14, %12
  store float %15, ptr %13, align 4
  %16 = getelementptr inbounds i8, ptr %1, i64 12
  %17 = load float, ptr %16, align 4
  %18 = getelementptr inbounds i8, ptr %0, i64 12
  %19 = load float, ptr %18, align 4
  %20 = fsub float %19, %17
  store float %20, ptr %18, align 4
  %21 = getelementptr inbounds i8, ptr %1, i64 16
  %22 = load float, ptr %21, align 4
  %23 = getelementptr inbounds i8, ptr %0, i64 16
  %24 = load float, ptr %23, align 4
  %25 = fsub float %24, %22
  store float %25, ptr %23, align 4
  %26 = getelementptr inbounds i8, ptr %1, i64 20
  %27 = load float, ptr %26, align 4
  %28 = getelementptr inbounds i8, ptr %0, i64 20
  %29 = load float, ptr %28, align 4
  %30 = fsub float %29, %27
  store float %30, ptr %28, align 4
  %31 = getelementptr inbounds i8, ptr %1, i64 24
  %32 = load float, ptr %31, align 4
  %33 = getelementptr inbounds i8, ptr %0, i64 24
  %34 = load float, ptr %33, align 4
  %35 = fsub float %34, %32
  store float %35, ptr %33, align 4
  %36 = getelementptr inbounds i8, ptr %1, i64 28
  %37 = load float, ptr %36, align 4
  %38 = getelementptr inbounds i8, ptr %0, i64 28
  %39 = load float, ptr %38, align 4
  %40 = fsub float %39, %37
  store float %40, ptr %38, align 4
  %41 = getelementptr inbounds i8, ptr %1, i64 32
  %42 = load float, ptr %41, align 4
  %43 = getelementptr inbounds i8, ptr %0, i64 32
  %44 = load float, ptr %43, align 4
  %45 = fsub float %44, %42
  store float %45, ptr %43, align 4
  ret ptr %0
}